target datalayout = "e-m:e-p270:32:32-p271:32:32-p272:64:64-i64:64-i128:128-f80:128-n8:16:32:64-S128"
target triple = "x86_64-pc-linux-gnu"

; Function Attrs: nounwind uwtable
define void @dt_iop_image_scaled_copy(ptr noalias noundef %0, ptr noalias noundef %1, float noundef %2, i64 noundef %3, i64 noundef %4, i64 noundef %5) #0 {
  %7 = alloca ptr, align 8
  %8 = alloca ptr, align 8
  %9 = alloca float, align 4
  %10 = alloca i64, align 8
  %11 = alloca i64, align 8
  %12 = alloca i64, align 8
  %13 = alloca i64, align 8
  %14 = alloca i64, align 8
  store ptr %0, ptr %7, align 8, !tbaa !17
  store ptr %1, ptr %8, align 8, !tbaa !17
  store float %2, ptr %9, align 4, !tbaa !29
  store i64 %3, ptr %10, align 8, !tbaa !21
  store i64 %4, ptr %11, align 8, !tbaa !21
  store i64 %5, ptr %12, align 8, !tbaa !21
  call void @llvm.lifetime.start.p0(i64 8, ptr %13) #9
  %15 = load i64, ptr %10, align 8, !tbaa !21
  %16 = load i64, ptr %11, align 8, !tbaa !21
  %17 = mul i64 %15, %16
  %18 = load i64, ptr %12, align 8, !tbaa !21
  %19 = mul i64 %17, %18
  store i64 %19, ptr %13, align 8, !tbaa !21
  call void @llvm.lifetime.start.p0(i64 8, ptr %14) #9
  store i64 0, ptr %14, align 8, !tbaa !21
  br label %20

20:                                               ; preds = %35, %6
  %21 = load i64, ptr %14, align 8, !tbaa !21
  %22 = load i64, ptr %13, align 8, !tbaa !21
  %23 = icmp ult i64 %21, %22
  br i1 %23, label %25, label %24

24:                                               ; preds = %20
  call void @llvm.lifetime.end.p0(i64 8, ptr %14) #9
  br label %38

25:                                               ; preds = %20
  %26 = load float, ptr %9, align 4, !tbaa !29
  %27 = load ptr, ptr %8, align 8, !tbaa !17
  %28 = load i64, ptr %14, align 8, !tbaa !21
  %29 = getelementptr inbounds nuw float, ptr %27, i64 %28
  %30 = load float, ptr %29, align 4, !tbaa !29
  %31 = fmul reassoc nsz arcp contract afn float %26, %30
  %32 = load ptr, ptr %7, align 8, !tbaa !17
  %33 = load i64, ptr %14, align 8, !tbaa !21
  %34 = getelementptr inbounds nuw float, ptr %32, i64 %33
  store float %31, ptr %34, align 4, !tbaa !29
  br label %35

35:                                               ; preds = %25
  %36 = load i64, ptr %14, align 8, !tbaa !21
  %37 = add i64 %36, 1
  store i64 %37, ptr %14, align 8, !tbaa !21
  br label %20

38:                                               ; preds = %24
  call void @llvm.lifetime.end.p0(i64 8, ptr %13) #9
  ret void
}