; Function Attrs: nofree norecurse nosync nounwind memory(argmem: readwrite) uwtable
define void @dt_iop_image_scaled_copy(ptr noalias noundef writeonly captures(none) %0, ptr noalias noundef readonly captures(none) %1, float noundef %2, i64 noundef %3, i64 noundef %4, i64 noundef %5) local_unnamed_addr #9 {
  %7 = mul i64 %4, %3
  %8 = mul i64 %7, %5
  %.not = icmp eq i64 %8, 0
  br i1 %.not, label %._crit_edge, label %.lr.ph

._crit_edge:                                      ; preds = %.lr.ph, %6
  ret void

.lr.ph:                                           ; preds = %6, %.lr.ph
  %.010 = phi i64 [ %13, %.lr.ph ], [ 0, %6 ]
  %9 = getelementptr inbounds nuw float, ptr %1, i64 %.010
  %10 = load float, ptr %9, align 4, !tbaa !32
  %11 = fmul reassoc nsz arcp contract afn float %10, %2
  %12 = getelementptr inbounds nuw float, ptr %0, i64 %.010
  store float %11, ptr %12, align 4, !tbaa !32
  %13 = add nuw i64 %.010, 1
  %exitcond.not = icmp eq i64 %13, %8
  br i1 %exitcond.not, label %._crit_edge, label %.lr.ph
}